target datalayout = "e-m:e-p270:32:32-p271:32:32-p272:64:64-i64:64-i128:128-f80:128-n8:16:32:64-S128"
target triple = "x86_64-pc-linux-gnu"

%struct.process_node_t = type { i32, ptr }

@.str.110 = private unnamed_addr constant [4 x i8] c",%s\00", align 1

; Function Attrs: nounwind uwtable
define internal void @_process_each_node(ptr noundef %0, ptr noundef %1, ptr noundef %2, ptr noundef %3) #0 {
  %5 = alloca ptr, align 8
  %6 = alloca ptr, align 8
  %7 = alloca ptr, align 8
  %8 = alloca ptr, align 8
  %9 = alloca ptr, align 8
  %10 = alloca ptr, align 8
  store ptr %0, ptr %5, align 8
  store ptr %1, ptr %6, align 8
  store ptr %2, ptr %7, align 8
  store ptr %3, ptr %8, align 8
  call void @llvm.lifetime.start.p0(i64 8, ptr %9) #7
  store ptr null, ptr %9, align 8
  call void @llvm.lifetime.start.p0(i64 8, ptr %10) #7
  %11 = load ptr, ptr %8, align 8
  store ptr %11, ptr %10, align 8
  %12 = load ptr, ptr %5, align 8
  %13 = load ptr, ptr %7, align 8
  %14 = load ptr, ptr %10, align 8
  %15 = getelementptr inbounds nuw %struct.process_node_t, ptr %14, i32 0, i32 0
  %16 = load i32, ptr %15, align 8
  call void (ptr, ptr, ...) @gtk_tree_model_get(ptr noundef %12, ptr noundef %13, i32 noundef %16, ptr noundef %9, i32 noundef -1)
  %17 = load ptr, ptr %10, align 8
  %18 = getelementptr inbounds nuw %struct.process_node_t, ptr %17, i32 0, i32 1
  %19 = load ptr, ptr %18, align 8
  %20 = icmp ne ptr %19, null
  br i1 %20, label %21, label %25

21:                                               ; preds = %4
  %22 = load ptr, ptr %10, align 8
  %23 = getelementptr inbounds nuw %struct.process_node_t, ptr %22, i32 0, i32 1
  %24 = load ptr, ptr %9, align 8
  call void (ptr, ptr, ...) @_xstrfmtcat(ptr noundef %23, ptr noundef @.str.110, ptr noundef %24)
  br label %30

25:                                               ; preds = %4
  %26 = load ptr, ptr %9, align 8
  %27 = call ptr @xstrdup(ptr noundef %26)
  %28 = load ptr, ptr %10, align 8
  %29 = getelementptr inbounds nuw %struct.process_node_t, ptr %28, i32 0, i32 1
  store ptr %27, ptr %29, align 8
  br label %30

30:                                               ; preds = %25, %21
  %31 = load ptr, ptr %9, align 8
  call void @g_free(ptr noundef %31)
  call void @llvm.lifetime.end.p0(i64 8, ptr %10) #7
  call void @llvm.lifetime.end.p0(i64 8, ptr %9) #7
  ret void
}