; Function Attrs: nounwind uwtable
define internal void @_process_each_node(ptr noundef %0, ptr readnone captures(none) %1, ptr noundef %2, ptr noundef %3) #0 {
  %5 = alloca ptr, align 8
  call void @llvm.lifetime.start.p0(i64 8, ptr nonnull %5) #11
  store ptr null, ptr %5, align 8
  %6 = load i32, ptr %3, align 8
  call void (ptr, ptr, ...) @gtk_tree_model_get(ptr noundef %0, ptr noundef %2, i32 noundef %6, ptr noundef nonnull %5, i32 noundef -1) #11
  %7 = getelementptr inbounds nuw i8, ptr %3, i64 8
  %8 = load ptr, ptr %7, align 8
  %.not = icmp eq ptr %8, null
  %9 = load ptr, ptr %5, align 8
  br i1 %.not, label %11, label %10

10:                                               ; preds = %4
  call void (ptr, ptr, ...) @_xstrfmtcat(ptr noundef nonnull %7, ptr noundef nonnull @.str.110, ptr noundef %9) #11
  br label %13

11:                                               ; preds = %4
  %12 = call ptr @xstrdup(ptr noundef %9) #11
  store ptr %12, ptr %7, align 8
  br label %13

13:                                               ; preds = %11, %10
  %14 = load ptr, ptr %5, align 8
  call void @g_free(ptr noundef %14) #11
  call void @llvm.lifetime.end.p0(i64 8, ptr nonnull %5) #11
  ret void
}